target datalayout = "e-m:e-p270:32:32-p271:32:32-p272:64:64-i64:64-i128:128-f80:128-n8:16:32:64-S128"
target triple = "x86_64-unknown-linux-gnu"

%"class.QuantLib::BlackCalculator" = type { ptr, double, double, double, double, double, double, double, double, double, double, double, double, double, double, double, double, double, double }
%"class.QuantLib::StrikedTypePayoff" = type { %"class.QuantLib::TypePayoff.base", double }
%"class.QuantLib::TypePayoff.base" = type <{ %"class.QuantLib::Payoff", i32 }>
%"class.QuantLib::Payoff" = type { ptr }
%"class.QuantLib::BlackCalculator::Calculator" = type { %"class.QuantLib::AcyclicVisitor", %"class.QuantLib::Visitor", %"class.QuantLib::Visitor.19", %"class.QuantLib::Visitor.20", %"class.QuantLib::Visitor.21", %"class.QuantLib::Visitor.22", ptr }
%"class.QuantLib::AcyclicVisitor" = type { ptr }
%"class.QuantLib::Visitor" = type { ptr }
%"class.QuantLib::Visitor.19" = type { ptr }
%"class.QuantLib::Visitor.20" = type { ptr }
%"class.QuantLib::Visitor.21" = type { ptr }
%"class.QuantLib::Visitor.22" = type { ptr }
%"class.QuantLib::GapPayoff" = type { %"class.QuantLib::StrikedTypePayoff", double }

; Function Attrs: mustprogress nounwind uwtable
define linkonce_odr noundef double @_ZNK8QuantLib9GapPayoff12secondStrikeEv(ptr noundef nonnull align 8 dereferenceable(32) %this) #6 comdat align 2 {
entry:
  %this.addr = alloca ptr, align 8
  store ptr %this, ptr %this.addr, align 8, !tbaa !3
  %this1 = load ptr, ptr %this.addr, align 8
  %secondStrike_ = getelementptr inbounds nuw %"class.QuantLib::GapPayoff", ptr %this1, i32 0, i32 1
  %0 = load double, ptr %secondStrike_, align 8, !tbaa !57
  ret double %0
}

; Function Attrs: mustprogress uwtable
define void @_ZN8QuantLib15BlackCalculator10Calculator5visitERNS_9GapPayoffE(ptr noundef nonnull align 8 dereferenceable(56) %this, ptr noundef nonnull align 8 dereferenceable(32) %payoff) unnamed_addr #4 align 2 {
entry:
  %this.addr = alloca ptr, align 8
  %payoff.addr = alloca ptr, align 8
  store ptr %this, ptr %this.addr, align 8, !tbaa !3
  store ptr %payoff, ptr %payoff.addr, align 8, !tbaa !3
  %this1 = load ptr, ptr %this.addr, align 8
  %0 = load ptr, ptr %payoff.addr, align 8, !tbaa !3
  %call = call noundef double @_ZNK8QuantLib9GapPayoff12secondStrikeEv(ptr noundef nonnull align 8 dereferenceable(32) %0)
  %black_ = getelementptr inbounds nuw %"class.QuantLib::BlackCalculator::Calculator", ptr %this1, i32 0, i32 6
  %1 = load ptr, ptr %black_, align 8, !tbaa !47
  %x_ = getelementptr inbounds nuw %"class.QuantLib::BlackCalculator", ptr %1, i32 0, i32 16
  store double %call, ptr %x_, align 8, !tbaa !33
  %black_2 = getelementptr inbounds nuw %"class.QuantLib::BlackCalculator::Calculator", ptr %this1, i32 0, i32 6
  %2 = load ptr, ptr %black_2, align 8, !tbaa !47
  %DxDstrike_ = getelementptr inbounds nuw %"class.QuantLib::BlackCalculator", ptr %2, i32 0, i32 18
  store double 0.000000e+00, ptr %DxDstrike_, align 8, !tbaa !34
  ret void
}