; Function Attrs: mustprogress nofree norecurse nosync nounwind willreturn memory(write, argmem: readwrite, inaccessiblemem: none) uwtable
define void @_ZN8QuantLib15BlackCalculator10Calculator5visitERNS_9GapPayoffE(ptr nocapture noundef nonnull readonly align 8 dereferenceable(56) %this, ptr nocapture noundef nonnull readonly align 8 dereferenceable(32) %payoff) unnamed_addr #16 align 2 {
entry:
  %secondStrike_.i = getelementptr inbounds nuw i8, ptr %payoff, i64 24
  %0 = load double, ptr %secondStrike_.i, align 8, !tbaa !86
  %black_ = getelementptr inbounds nuw i8, ptr %this, i64 48
  %1 = load ptr, ptr %black_, align 8, !tbaa !76
  %x_ = getelementptr inbounds nuw i8, ptr %1, i64 128
  store double %0, ptr %x_, align 8, !tbaa !51
  %DxDstrike_ = getelementptr inbounds nuw i8, ptr %1, i64 144
  store double 0.000000e+00, ptr %DxDstrike_, align 8, !tbaa !52
  ret void
}